; Function Attrs: mustprogress nofree norecurse nosync nounwind sspstrong willreturn memory(read, inaccessiblemem: none) uwtable
define dso_local range(i64 0, 68719476721) i64 @virtio_queue_get_desc_size(ptr noundef readonly captures(none) %vdev, i32 noundef %n) local_unnamed_addr #2 {
entry:
  %vq = getelementptr inbounds nuw i8, ptr %vdev, i64 232
  %0 = load ptr, ptr %vq, align 8
  %idxprom = sext i32 %n to i64
  %arrayidx = getelementptr %struct.VirtQueue, ptr %0, i64 %idxprom
  %1 = load i32, ptr %arrayidx, align 8
  %conv = zext i32 %1 to i64
  %mul = shl nuw nsw i64 %conv, 4
  ret i64 %mul
}